; Function Attrs: mustprogress nofree norecurse nosync nounwind willreturn memory(read, argmem: readwrite, inaccessiblemem: none) uwtable
define internal noundef i32 @H5B2__test2_compare(ptr noundef readonly captures(none) %0, ptr noundef readonly captures(none) %1, ptr noundef writeonly captures(none) %2) #1 {
  %4 = load i8, ptr @H5B2_init_g, align 1, !tbaa !3, !range !7, !noundef !8
  %5 = trunc nuw i8 %4 to i1
  %6 = load i8, ptr @H5_libterm_g, align 1, !range !7
  %7 = trunc nuw i8 %6 to i1
  %8 = xor i1 %7, true
  %9 = select i1 %5, i1 true, i1 %8
  br i1 %9, label %10, label %15, !prof !9

10:                                               ; preds = %3
  %11 = load i64, ptr %0, align 8, !tbaa !21
  %12 = load i64, ptr %1, align 8, !tbaa !21
  %13 = sub i64 %11, %12
  %14 = trunc i64 %13 to i32
  store i32 %14, ptr %2, align 4, !tbaa !14
  br label %15

15:                                               ; preds = %10, %3
  ret i32 0
}